target datalayout = "e-m:e-p270:32:32-p271:32:32-p272:64:64-i64:64-i128:128-f80:128-n8:16:32:64-S128"
target triple = "x86_64-pc-linux-gnu"

%struct.OSSL_TIME = type { i64 }
%struct.ssl_session_st = type { i32, i64, [64 x i8], [512 x i8], i64, [32 x i8], i64, [32 x i8], ptr, ptr, i32, ptr, ptr, ptr, i64, %struct.OSSL_TIME, %struct.OSSL_TIME, %struct.OSSL_TIME, i32, ptr, i64, i32, %struct.crypto_ex_data_st, %struct.anon, ptr, ptr, i64, i32, ptr, ptr, ptr, %struct.CRYPTO_REF_COUNT }
%struct.crypto_ex_data_st = type { ptr, ptr }
%struct.anon = type { ptr, ptr, i64, i64, i32, i32, ptr, i64, i8 }
%struct.CRYPTO_REF_COUNT = type { i32 }

@.str = private unnamed_addr constant [26 x i8] c"../openssl/ssl/ssl_sess.c\00", align 1

; Function Attrs: nounwind uwtable
define i32 @SSL_SESSION_set1_hostname(ptr noundef %0, ptr noundef %1) #0 {
  %3 = alloca i32, align 4
  %4 = alloca ptr, align 8
  %5 = alloca ptr, align 8
  store ptr %0, ptr %4, align 8, !tbaa !3
  store ptr %1, ptr %5, align 8, !tbaa !127
  %6 = load ptr, ptr %4, align 8, !tbaa !3
  %7 = getelementptr inbounds nuw %struct.ssl_session_st, ptr %6, i32 0, i32 23
  %8 = getelementptr inbounds nuw %struct.anon, ptr %7, i32 0, i32 0
  %9 = load ptr, ptr %8, align 8, !tbaa !86
  call void @CRYPTO_free(ptr noundef %9, ptr noundef @.str, i32 noundef 1021)
  %10 = load ptr, ptr %5, align 8, !tbaa !127
  %11 = icmp eq ptr %10, null
  br i1 %11, label %12, label %16

12:                                               ; preds = %2
  %13 = load ptr, ptr %4, align 8, !tbaa !3
  %14 = getelementptr inbounds nuw %struct.ssl_session_st, ptr %13, i32 0, i32 23
  %15 = getelementptr inbounds nuw %struct.anon, ptr %14, i32 0, i32 0
  store ptr null, ptr %15, align 8, !tbaa !86
  store i32 1, ptr %3, align 4
  br label %28

16:                                               ; preds = %2
  %17 = load ptr, ptr %5, align 8, !tbaa !127
  %18 = call noalias ptr @CRYPTO_strdup(ptr noundef %17, ptr noundef @.str, i32 noundef 1026)
  %19 = load ptr, ptr %4, align 8, !tbaa !3
  %20 = getelementptr inbounds nuw %struct.ssl_session_st, ptr %19, i32 0, i32 23
  %21 = getelementptr inbounds nuw %struct.anon, ptr %20, i32 0, i32 0
  store ptr %18, ptr %21, align 8, !tbaa !86
  %22 = load ptr, ptr %4, align 8, !tbaa !3
  %23 = getelementptr inbounds nuw %struct.ssl_session_st, ptr %22, i32 0, i32 23
  %24 = getelementptr inbounds nuw %struct.anon, ptr %23, i32 0, i32 0
  %25 = load ptr, ptr %24, align 8, !tbaa !86
  %26 = icmp ne ptr %25, null
  %27 = zext i1 %26 to i32
  store i32 %27, ptr %3, align 4
  br label %28

28:                                               ; preds = %16, %12
  %29 = load i32, ptr %3, align 4
  ret i32 %29
}