; Function Attrs: nounwind uwtable
define range(i32 0, 2) i32 @SSL_SESSION_set1_hostname(ptr noundef captures(none) %0, ptr noundef %1) local_unnamed_addr #3 {
  %3 = getelementptr inbounds nuw i8, ptr %0, i64 800
  %4 = load ptr, ptr %3, align 8, !tbaa !83
  tail call void @CRYPTO_free(ptr noundef %4, ptr noundef nonnull @.str, i32 noundef 1021) #11
  %5 = icmp eq ptr %1, null
  br i1 %5, label %10, label %6

6:                                                ; preds = %2
  %7 = tail call noalias ptr @CRYPTO_strdup(ptr noundef nonnull %1, ptr noundef nonnull @.str, i32 noundef 1026) #11
  %8 = icmp ne ptr %7, null
  %9 = zext i1 %8 to i32
  br label %10

10:                                               ; preds = %2, %6
  %.sink = phi ptr [ %7, %6 ], [ null, %2 ]
  %.0 = phi i32 [ %9, %6 ], [ 1, %2 ]
  store ptr %.sink, ptr %3, align 8, !tbaa !83
  ret i32 %.0
}